(lp1
(ichain
CreateGenesisBlock
p2
(dp3
S'blockheader'
p4
(ichain
BlockHeader
p5
(dp6
S'headerhash'
p7
S'f5f6ae50bffa850950bfaf6d26802d9aab75dd5c7af40b7fc96ce6b37b308101'
p8
sS'hash'
p9
S'genesis'
p10
sS'number_transactions'
p11
I0
sS'timestamp'
p12
I0
sS'block_reward'
p13
I0
sS'blocknumber'
p14
I0
sS'epoch'
p15
I0
sS'hashedstake'
p16
S'5feceb66ffc86f38d952786c6d696c79c2dbc239dd4e91b46729d73a27fb57e9'
p17
sS'reveal_list'
p18
(lp19
sS'prev_blockheaderhash'
p20
S'0437f1ef542ff6ab2e84f927fca678f8747988b07600fba90a02252e2428d7c4'
p21
sS'stake_nonce'
p22
I0
sS'merkle_root_tx_hash'
p23
S'5feceb66ffc86f38d952786c6d696c79c2dbc239dd4e91b46729d73a27fb57e9'
p24
sS'number_stake'
p25
I0
sS'stake_selector'
p26
S''
sbsS'transactions'
p27
(lp28
sS'stake'
p29
(lp30
sS'state'
p31
(lp32
(lp33
S'Q8eb5a51d4b8a4b53c5b8b9ded93d7fd7717796c3690bee0767b1dcaadd3520c1e242'
p34
a(lp35
I0
aI10000000000000
a(lp36
aaa(lp37
S'Q44328abd64300ce05c7b297f13ff9f02de4c0e40c5956a2168dd8c0a7c476bf613ce'
p38
a(lp39
I0
aI1000000000000
a(lp40
aaa(lp41
S'Q4acc55bb7126f532cc1566242809153bb3cc8d360256aa94b7180ca4f7ffa555de57'
p42
a(lp43
I0
aI1000000000000
a(lp44
aaa(lp45
S'Q34eabf7ef2c6582096a433237a603b862fd5a70ac4efe4fd69faae21ca390512b3ac'
p46
a(lp47
I0
aI1000000000000
a(lp48
aaa(lp49
S'Qfc6a9b751915048a7888b65e77f9a248379d8b47c94081b3baced7c1234dc7f4b419'
p50
a(lp51
I0
aI1000000000000
a(lp52
aaa(lp53
S'Q816e7f9908b434f3b5ea629b99fe29aaeaa4369d15566d6a35fb757cae0521bccbb2'
p54
a(lp55
I0
aI15000000000000
a(lp56
aaa(lp57
S'Qd434eb60f72cc25e4a2e263ecf97c21eb234d885ad840db3540d23190bf41c8bc122'
p58
a(lp59
I0
aI15000000000000
a(lp60
aaa(lp61
S'Q54c6a375aa571a0fd12e69daf225bad1e32da34ad9cd8cf642b665c72dfdfbdbdb4c'
p62
a(lp63
I0
aI15000000000000
a(lp64
aaa(lp65
S'Q1165f76f6a56367c311ea47074ea313406dbf637ef7810315ec66736d0f2d82dd168'
p66
a(lp67
I0
aI15000000000000
a(lp68
aaa(lp69
S'Qea190a2e321e94b4a9742be41d6281870e5d5297183a36edc940ebeff685d3413fd1'
p70
a(lp71
I0
aI15000000000000
a(lp72
aaasS'stake_list'
p73
(lp74
g34
ag50
ag42
ag38
aS'Qa1f6f52ecb490cc3209a5e3580aa9539edfff0cb5a3ce06adc8f0c1e46bf38bfe0a0'
p75
ag54
ag58
ag62
ag66
ag70
asS'stake_seed'
p76
S'1a02aa2cbe25c60f491aeb03131976be2f9b5e9d0bc6b6d9e0e7c7fd19c8a076c29e028f5f3924b4'
p77
sba.