(lp1
(lp2
S'wedgy untune cetera fryer kicky rink tyloma oursel desalt naut hemoid flirts titans epitra lynch floaty fauves smutch mesked correo bora varna spydom upwrap pankin dasher donet agha cuyas peeing wurley picote'
p3
aS'f54ec328054b77eb94e819d73b6944654504e1448e8535084d5ccc8a430c1c5efad1aedda0a38c3fa04136aa34fa0a56'
p4
aI4096
aI1
aI4095
aa.